target datalayout = "e-m:e-p270:32:32-p271:32:32-p272:64:64-i64:64-i128:128-f80:128-n8:16:32:64-S128"
target triple = "x86_64-pc-linux-gnu"

; Function Attrs: mustprogress uwtable
define internal noundef i32 @_ZN17duckdb_libpgqueryL23process_integer_literalEPKcPNS_12core_YYSTYPEE(ptr noundef %0, ptr noundef %1) #0 {
  %3 = alloca i32, align 4
  %4 = alloca ptr, align 8
  %5 = alloca ptr, align 8
  %6 = alloca i32, align 4
  %7 = alloca i32, align 4
  %8 = alloca ptr, align 8
  %9 = alloca ptr, align 8
  %10 = alloca ptr, align 8
  %11 = alloca ptr, align 8
  %12 = alloca i64, align 8
  %13 = alloca ptr, align 8
  %14 = alloca i32, align 4
  store ptr %0, ptr %4, align 8, !tbaa !30
  store ptr %1, ptr %5, align 8, !tbaa !3
  call void @llvm.lifetime.start.p0(i64 4, ptr %6) #11
  store i32 0, ptr %6, align 4, !tbaa !33
  call void @llvm.lifetime.start.p0(i64 4, ptr %7) #11
  store i32 0, ptr %7, align 4, !tbaa !33
  call void @llvm.lifetime.start.p0(i64 8, ptr %8) #11
  %15 = load ptr, ptr %4, align 8, !tbaa !30
  store ptr %15, ptr %8, align 8, !tbaa !30
  br label %16

16:                                               ; preds = %33, %2
  %17 = load ptr, ptr %8, align 8, !tbaa !30
  %18 = load i8, ptr %17, align 1, !tbaa !32
  %19 = sext i8 %18 to i32
  %20 = icmp ne i32 %19, 0
  br i1 %20, label %22, label %21

21:                                               ; preds = %16
  call void @llvm.lifetime.end.p0(i64 8, ptr %8) #11
  br label %36

22:                                               ; preds = %16
  %23 = load i32, ptr %7, align 4, !tbaa !33
  %24 = add nsw i32 %23, 1
  store i32 %24, ptr %7, align 4, !tbaa !33
  %25 = load ptr, ptr %8, align 8, !tbaa !30
  %26 = load i8, ptr %25, align 1, !tbaa !32
  %27 = sext i8 %26 to i32
  %28 = icmp eq i32 %27, 95
  br i1 %28, label %29, label %32

29:                                               ; preds = %22
  %30 = load i32, ptr %6, align 4, !tbaa !33
  %31 = add nsw i32 %30, 1
  store i32 %31, ptr %6, align 4, !tbaa !33
  br label %32

32:                                               ; preds = %29, %22
  br label %33

33:                                               ; preds = %32
  %34 = load ptr, ptr %8, align 8, !tbaa !30
  %35 = getelementptr inbounds nuw i8, ptr %34, i32 1
  store ptr %35, ptr %8, align 8, !tbaa !30
  br label %16, !llvm.loop !84

36:                                               ; preds = %21
  %37 = load i32, ptr %6, align 4, !tbaa !33
  %38 = icmp ne i32 %37, 0
  br i1 %38, label %39, label %71

39:                                               ; preds = %36
  call void @llvm.lifetime.start.p0(i64 8, ptr %9) #11
  %40 = load i32, ptr %7, align 4, !tbaa !33
  %41 = load i32, ptr %6, align 4, !tbaa !33
  %42 = sub nsw i32 %40, %41
  %43 = add nsw i32 %42, 1
  %44 = sext i32 %43 to i64
  %45 = call noundef ptr @_ZN17duckdb_libpgquery6pallocEm(i64 noundef %44)
  store ptr %45, ptr %9, align 8, !tbaa !30
  call void @llvm.lifetime.start.p0(i64 8, ptr %10) #11
  %46 = load ptr, ptr %9, align 8, !tbaa !30
  store ptr %46, ptr %10, align 8, !tbaa !30
  call void @llvm.lifetime.start.p0(i64 8, ptr %11) #11
  %47 = load ptr, ptr %4, align 8, !tbaa !30
  store ptr %47, ptr %11, align 8, !tbaa !30
  br label %48

48:                                               ; preds = %65, %39
  %49 = load ptr, ptr %11, align 8, !tbaa !30
  %50 = load i8, ptr %49, align 1, !tbaa !32
  %51 = sext i8 %50 to i32
  %52 = icmp ne i32 %51, 0
  br i1 %52, label %54, label %53

53:                                               ; preds = %48
  call void @llvm.lifetime.end.p0(i64 8, ptr %11) #11
  br label %68

54:                                               ; preds = %48
  %55 = load ptr, ptr %11, align 8, !tbaa !30
  %56 = load i8, ptr %55, align 1, !tbaa !32
  %57 = sext i8 %56 to i32
  %58 = icmp ne i32 %57, 95
  br i1 %58, label %59, label %64

59:                                               ; preds = %54
  %60 = load ptr, ptr %11, align 8, !tbaa !30
  %61 = load i8, ptr %60, align 1, !tbaa !32
  %62 = load ptr, ptr %10, align 8, !tbaa !30
  %63 = getelementptr inbounds nuw i8, ptr %62, i32 1
  store ptr %63, ptr %10, align 8, !tbaa !30
  store i8 %61, ptr %62, align 1, !tbaa !32
  br label %64

64:                                               ; preds = %59, %54
  br label %65

65:                                               ; preds = %64
  %66 = load ptr, ptr %11, align 8, !tbaa !30
  %67 = getelementptr inbounds nuw i8, ptr %66, i32 1
  store ptr %67, ptr %11, align 8, !tbaa !30
  br label %48, !llvm.loop !85

68:                                               ; preds = %53
  %69 = load ptr, ptr %10, align 8, !tbaa !30
  store i8 0, ptr %69, align 1, !tbaa !32
  %70 = load ptr, ptr %9, align 8, !tbaa !30
  store ptr %70, ptr %4, align 8, !tbaa !30
  call void @llvm.lifetime.end.p0(i64 8, ptr %10) #11
  call void @llvm.lifetime.end.p0(i64 8, ptr %9) #11
  br label %71

71:                                               ; preds = %68, %36
  call void @llvm.lifetime.start.p0(i64 8, ptr %12) #11
  call void @llvm.lifetime.start.p0(i64 8, ptr %13) #11
  %72 = call ptr @__errno_location() #14
  store i32 0, ptr %72, align 4, !tbaa !33
  %73 = load ptr, ptr %4, align 8, !tbaa !30
  %74 = call i64 @strtol(ptr noundef %73, ptr noundef %13, i32 noundef 10) #11
  store i64 %74, ptr %12, align 8, !tbaa !74
  %75 = load ptr, ptr %13, align 8, !tbaa !30
  %76 = load i8, ptr %75, align 1, !tbaa !32
  %77 = sext i8 %76 to i32
  %78 = icmp ne i32 %77, 0
  br i1 %78, label %89, label %79

79:                                               ; preds = %71
  %80 = call ptr @__errno_location() #14
  %81 = load i32, ptr %80, align 4, !tbaa !33
  %82 = icmp eq i32 %81, 34
  br i1 %82, label %89, label %83

83:                                               ; preds = %79
  %84 = load i64, ptr %12, align 8, !tbaa !74
  %85 = load i64, ptr %12, align 8, !tbaa !74
  %86 = trunc i64 %85 to i32
  %87 = sext i32 %86 to i64
  %88 = icmp ne i64 %84, %87
  br i1 %88, label %89, label %93

89:                                               ; preds = %83, %79, %71
  %90 = load ptr, ptr %4, align 8, !tbaa !30
  %91 = call noundef ptr @_ZN17duckdb_libpgquery7pstrdupEPKc(ptr noundef %90)
  %92 = load ptr, ptr %5, align 8, !tbaa !3
  store ptr %91, ptr %92, align 8, !tbaa !32
  store i32 259, ptr %3, align 4
  store i32 1, ptr %14, align 4
  br label %97

93:                                               ; preds = %83
  %94 = load i64, ptr %12, align 8, !tbaa !74
  %95 = trunc i64 %94 to i32
  %96 = load ptr, ptr %5, align 8, !tbaa !3
  store i32 %95, ptr %96, align 8, !tbaa !32
  store i32 264, ptr %3, align 4
  store i32 1, ptr %14, align 4
  br label %97

97:                                               ; preds = %93, %89
  call void @llvm.lifetime.end.p0(i64 8, ptr %13) #11
  call void @llvm.lifetime.end.p0(i64 8, ptr %12) #11
  call void @llvm.lifetime.end.p0(i64 4, ptr %7) #11
  call void @llvm.lifetime.end.p0(i64 4, ptr %6) #11
  %98 = load i32, ptr %3, align 4
  ret i32 %98
}