; Function Attrs: mustprogress uwtable
define internal fastcc noundef range(i32 259, 265) i32 @_ZN17duckdb_libpgqueryL23process_integer_literalEPKcPNS_12core_YYSTYPEE(ptr noundef %0, ptr noundef writeonly captures(none) %1) unnamed_addr #0 {
  %3 = alloca ptr, align 8
  %4 = load i8, ptr %0, align 1, !tbaa !32
  %.not39 = icmp eq i8 %4, 0
  br i1 %.not39, label %._crit_edge.thread, label %.lr.ph

._crit_edge:                                      ; preds = %.lr.ph
  %.not34 = icmp eq i32 %spec.select, 0
  br i1 %.not34, label %._crit_edge.thread, label %11

.lr.ph:                                           ; preds = %2, %.lr.ph
  %5 = phi i8 [ %10, %.lr.ph ], [ %4, %2 ]
  %.02842 = phi ptr [ %9, %.lr.ph ], [ %0, %2 ]
  %.02941 = phi i32 [ %6, %.lr.ph ], [ 0, %2 ]
  %.03040 = phi i32 [ %spec.select, %.lr.ph ], [ 0, %2 ]
  %6 = add nuw nsw i32 %.02941, 1
  %7 = icmp eq i8 %5, 95
  %8 = zext i1 %7 to i32
  %spec.select = add nuw nsw i32 %.03040, %8
  %9 = getelementptr inbounds nuw i8, ptr %.02842, i64 1
  %10 = load i8, ptr %9, align 1, !tbaa !32
  %.not = icmp eq i8 %10, 0
  br i1 %.not, label %._crit_edge, label %.lr.ph, !llvm.loop !88

11:                                               ; preds = %._crit_edge
  %reass.sub = sub nsw i32 %6, %spec.select
  %12 = add i32 %reass.sub, 1
  %13 = sext i32 %12 to i64
  %14 = tail call noundef ptr @_ZN17duckdb_libpgquery6pallocEm(i64 noundef %13)
  br label %15

15:                                               ; preds = %20, %11
  %.026 = phi ptr [ %14, %11 ], [ %.1, %20 ]
  %.025 = phi ptr [ %0, %11 ], [ %21, %20 ]
  %16 = load i8, ptr %.025, align 1, !tbaa !32
  switch i8 %16, label %18 [
    i8 0, label %17
    i8 95, label %20
  ]

17:                                               ; preds = %15
  store i8 0, ptr %.026, align 1, !tbaa !32
  br label %._crit_edge.thread

18:                                               ; preds = %15
  %19 = getelementptr inbounds nuw i8, ptr %.026, i64 1
  store i8 %16, ptr %.026, align 1, !tbaa !32
  br label %20

20:                                               ; preds = %15, %18
  %.1 = phi ptr [ %19, %18 ], [ %.026, %15 ]
  %21 = getelementptr inbounds nuw i8, ptr %.025, i64 1
  br label %15, !llvm.loop !89

._crit_edge.thread:                               ; preds = %2, %17, %._crit_edge
  %.027 = phi ptr [ %14, %17 ], [ %0, %._crit_edge ], [ %0, %2 ]
  call void @llvm.lifetime.start.p0(i64 8, ptr nonnull %3) #22
  %22 = tail call ptr @__errno_location() #21
  store i32 0, ptr %22, align 4, !tbaa !48
  %23 = call i64 @strtol(ptr noundef %.027, ptr noundef nonnull %3, i32 noundef 10) #22
  %24 = load ptr, ptr %3, align 8, !tbaa !90
  %25 = load i8, ptr %24, align 1, !tbaa !32
  %.not36 = icmp eq i8 %25, 0
  br i1 %.not36, label %26, label %30

26:                                               ; preds = %._crit_edge.thread
  %27 = load i32, ptr %22, align 4, !tbaa !48
  %28 = icmp ne i32 %27, 34
  %29 = add i64 %23, 2147483648
  %.not37 = icmp ult i64 %29, 4294967296
  %or.cond = select i1 %28, i1 %.not37, i1 false
  br i1 %or.cond, label %32, label %30

30:                                               ; preds = %26, %._crit_edge.thread
  %31 = tail call noundef ptr @_ZN17duckdb_libpgquery7pstrdupEPKc(ptr noundef %.027)
  store ptr %31, ptr %1, align 8, !tbaa !32
  br label %34

32:                                               ; preds = %26
  %33 = trunc i64 %23 to i32
  store i32 %33, ptr %1, align 8, !tbaa !32
  br label %34

34:                                               ; preds = %32, %30
  %.0 = phi i32 [ 259, %30 ], [ 264, %32 ]
  call void @llvm.lifetime.end.p0(i64 8, ptr nonnull %3) #22
  ret i32 %.0
}